; Function Attrs: nounwind uwtable
define dso_local i32 @get_object_type(i32 noundef %0, i32 noundef %1) local_unnamed_addr #0 {
  %3 = load ptr, ptr @get_object_property_data.prop_last, align 8
  %.not.i = icmp eq ptr %3, null
  br i1 %.not.i, label %.preheader, label %4

4:                                                ; preds = %2
  %5 = getelementptr inbounds nuw i8, ptr %3, i64 8
  %6 = load i32, ptr %5, align 8
  %7 = icmp eq i32 %6, %0
  br i1 %7, label %get_object_property_data.exit, label %.preheader

.preheader:                                       ; preds = %4, %2
  br label %9

8:                                                ; preds = %9
  %indvars.iv.next.i = add nuw nsw i64 %indvars.iv.i, 1
  %exitcond.not.i = icmp eq i64 %indvars.iv.next.i, 37
  br i1 %exitcond.not.i, label %15, label %9, !llvm.loop !10

9:                                                ; preds = %.preheader, %8
  %indvars.iv.i = phi i64 [ %indvars.iv.next.i, %8 ], [ 0, %.preheader ]
  %10 = getelementptr inbounds nuw [37 x %struct.ObjectPropertyType], ptr @ObjectProperty, i64 0, i64 %indvars.iv.i
  %11 = getelementptr inbounds nuw i8, ptr %10, i64 8
  %12 = load i32, ptr %11, align 8
  %13 = icmp eq i32 %12, %0
  br i1 %13, label %14, label %8

14:                                               ; preds = %9
  store ptr %10, ptr @get_object_property_data.prop_last, align 8
  br label %get_object_property_data.exit

15:                                               ; preds = %8
  %16 = tail call zeroext i1 @errstart_cold(i32 noundef 21, ptr noundef null) #12
  tail call void @llvm.assume(i1 %16)
  %17 = tail call i32 (ptr, ...) @errmsg_internal(ptr noundef nonnull @.str.229, i32 noundef %0) #11
  tail call void @errfinish(ptr noundef nonnull @.str.1, i32 noundef 2773, ptr noundef nonnull @__func__.get_object_property_data) #11
  unreachable

get_object_property_data.exit:                    ; preds = %4, %14
  %.08.i = phi ptr [ %10, %14 ], [ %3, %4 ]
  %18 = getelementptr inbounds nuw i8, ptr %.08.i, i64 36
  %19 = load i32, ptr %18, align 4
  %20 = icmp eq i32 %19, 41
  br i1 %20, label %21, label %get_relkind_objtype.exit

21:                                               ; preds = %get_object_property_data.exit
  %22 = tail call signext i8 @get_rel_relkind(i32 noundef %1) #11
  switch i8 %22, label %27 [
    i8 102, label %26
    i8 109, label %25
    i8 105, label %get_relkind_objtype.exit
    i8 73, label %get_relkind_objtype.exit
    i8 83, label %23
    i8 118, label %24
  ]

23:                                               ; preds = %21
  br label %get_relkind_objtype.exit

24:                                               ; preds = %21
  br label %get_relkind_objtype.exit

25:                                               ; preds = %21
  br label %get_relkind_objtype.exit

26:                                               ; preds = %21
  br label %get_relkind_objtype.exit

27:                                               ; preds = %21
  br label %get_relkind_objtype.exit

get_relkind_objtype.exit:                         ; preds = %27, %26, %25, %24, %23, %21, %21, %get_object_property_data.exit
  %.0 = phi i32 [ %19, %get_object_property_data.exit ], [ 41, %27 ], [ 18, %26 ], [ 23, %25 ], [ 51, %24 ], [ 37, %23 ], [ 20, %21 ], [ 20, %21 ]
  ret i32 %.0
}